target datalayout = "e-m:e-p270:32:32-p271:32:32-p272:64:64-i64:64-i128:128-f80:128-n8:16:32:64-S128"
target triple = "x86_64-pc-linux-gnu"

%struct.G1HeapRegionAttr = type { i8, i8, i8 }
%"struct.G1PLABAllocator::PLABData" = type <{ ptr, i64, i64, i64, i64, i64, i32, [4 x i8] }>
%class.G1PLABAllocator = type { ptr, ptr, [2 x %"struct.G1PLABAllocator::PLABData"], i64 }

; Function Attrs: mustprogress nounwind uwtable
define linkonce_odr hidden noundef ptr @_ZNK15G1PLABAllocator12alloc_bufferEaj(ptr noundef nonnull align 8 dereferenceable(136) %0, i8 noundef signext %1, i32 noundef %2) #1 comdat align 2 {
  %4 = alloca ptr, align 8
  %5 = alloca ptr, align 8
  %6 = alloca i8, align 1
  %7 = alloca i32, align 4
  store ptr %0, ptr %5, align 8
  store i8 %1, ptr %6, align 1
  store i32 %2, ptr %7, align 4
  %8 = load ptr, ptr %5, align 8
  %9 = load i8, ptr %6, align 1
  %10 = sext i8 %9 to i32
  %11 = icmp eq i32 %10, 0
  br i1 %11, label %12, label %23

12:                                               ; preds = %3
  %13 = getelementptr inbounds %class.G1PLABAllocator, ptr %8, i32 0, i32 2
  %14 = load i8, ptr %6, align 1
  %15 = sext i8 %14 to i64
  %16 = getelementptr inbounds [2 x %"struct.G1PLABAllocator::PLABData"], ptr %13, i64 0, i64 %15
  %17 = getelementptr inbounds %"struct.G1PLABAllocator::PLABData", ptr %16, i32 0, i32 0
  %18 = load ptr, ptr %17, align 8
  %19 = load i32, ptr %7, align 4
  %20 = zext i32 %19 to i64
  %21 = getelementptr inbounds ptr, ptr %18, i64 %20
  %22 = load ptr, ptr %21, align 8
  store ptr %22, ptr %4, align 8
  br label %32

23:                                               ; preds = %3
  %24 = getelementptr inbounds %class.G1PLABAllocator, ptr %8, i32 0, i32 2
  %25 = load i8, ptr %6, align 1
  %26 = sext i8 %25 to i64
  %27 = getelementptr inbounds [2 x %"struct.G1PLABAllocator::PLABData"], ptr %24, i64 0, i64 %26
  %28 = getelementptr inbounds %"struct.G1PLABAllocator::PLABData", ptr %27, i32 0, i32 0
  %29 = load ptr, ptr %28, align 8
  %30 = getelementptr inbounds ptr, ptr %29, i64 0
  %31 = load ptr, ptr %30, align 8
  store ptr %31, ptr %4, align 8
  br label %32

32:                                               ; preds = %23, %12
  %33 = load ptr, ptr %4, align 8
  ret ptr %33
}

; Function Attrs: mustprogress nounwind uwtable
define linkonce_odr hidden noundef signext i8 @_ZNK16G1HeapRegionAttr4typeEv(ptr noundef nonnull align 1 dereferenceable(3) %0) #1 comdat align 2 {
  %2 = alloca ptr, align 8
  store ptr %0, ptr %2, align 8
  %3 = load ptr, ptr %2, align 8
  %4 = getelementptr inbounds %struct.G1HeapRegionAttr, ptr %3, i32 0, i32 1
  %5 = load i8, ptr %4, align 1
  ret i8 %5
}

; Function Attrs: mustprogress nounwind uwtable
define linkonce_odr hidden noundef ptr @_ZNK15G1PLABAllocator12alloc_bufferE16G1HeapRegionAttrj(ptr noundef nonnull align 8 dereferenceable(136) %0, i24 %1, i32 noundef %2) #1 comdat align 2 {
  %4 = alloca %struct.G1HeapRegionAttr, align 1
  %5 = alloca i24, align 4
  %6 = alloca ptr, align 8
  %7 = alloca i32, align 4
  store i24 %1, ptr %5, align 4
  call void @llvm.memcpy.p0.p0.i64(ptr align 1 %4, ptr align 4 %5, i64 3, i1 false)
  store ptr %0, ptr %6, align 8
  store i32 %2, ptr %7, align 4
  %8 = load ptr, ptr %6, align 8
  %9 = call noundef signext i8 @_ZNK16G1HeapRegionAttr4typeEv(ptr noundef nonnull align 1 dereferenceable(3) %4)
  %10 = load i32, ptr %7, align 4
  %11 = call noundef ptr @_ZNK15G1PLABAllocator12alloc_bufferEaj(ptr noundef nonnull align 8 dereferenceable(136) %8, i8 noundef signext %9, i32 noundef %10)
  ret ptr %11
}

; Function Attrs: mustprogress nounwind uwtable
define hidden void @_ZN15G1PLABAllocator15undo_allocationE16G1HeapRegionAttrPP12HeapWordImplmj(ptr noundef nonnull align 8 dereferenceable(136) %0, i24 %1, ptr noundef %2, i64 noundef %3, i32 noundef %4) #1 align 2 {
  %6 = alloca %struct.G1HeapRegionAttr, align 1
  %7 = alloca i24, align 4
  %8 = alloca ptr, align 8
  %9 = alloca ptr, align 8
  %10 = alloca i64, align 8
  %11 = alloca i32, align 4
  %12 = alloca %struct.G1HeapRegionAttr, align 1
  %13 = alloca i24, align 4
  store i24 %1, ptr %7, align 4
  call void @llvm.memcpy.p0.p0.i64(ptr align 1 %6, ptr align 4 %7, i64 3, i1 false)
  store ptr %0, ptr %8, align 8
  store ptr %2, ptr %9, align 8
  store i64 %3, ptr %10, align 8
  store i32 %4, ptr %11, align 4
  %14 = load ptr, ptr %8, align 8
  call void @llvm.memcpy.p0.p0.i64(ptr align 1 %12, ptr align 1 %6, i64 3, i1 false)
  %15 = load i32, ptr %11, align 4
  call void @llvm.memcpy.p0.p0.i64(ptr align 4 %13, ptr align 1 %12, i64 3, i1 false)
  %16 = load i24, ptr %13, align 4
  %17 = call noundef ptr @_ZNK15G1PLABAllocator12alloc_bufferE16G1HeapRegionAttrj(ptr noundef nonnull align 8 dereferenceable(136) %14, i24 %16, i32 noundef %15)
  %18 = load ptr, ptr %9, align 8
  %19 = load i64, ptr %10, align 8
  call void @_ZN4PLAB15undo_allocationEPP12HeapWordImplm(ptr noundef nonnull align 8 dereferenceable(128) %17, ptr noundef %18, i64 noundef %19)
  ret void
}