; Function Attrs: mustprogress nounwind uwtable
define hidden void @_ZN15G1PLABAllocator15undo_allocationE16G1HeapRegionAttrPP12HeapWordImplmj(ptr nocapture noundef nonnull readonly align 8 dereferenceable(136) %0, i24 %1, ptr noundef %2, i64 noundef %3, i32 noundef %4) local_unnamed_addr #0 align 2 {
  %.sroa.1.0.extract.shift.i = lshr i24 %1, 8
  %.sroa.1.0.extract.trunc.i = trunc i24 %.sroa.1.0.extract.shift.i to i8
  %6 = icmp eq i8 %.sroa.1.0.extract.trunc.i, 0
  %7 = getelementptr inbounds i8, ptr %0, i64 16
  br i1 %6, label %8, label %12

8:                                                ; preds = %5
  %9 = load ptr, ptr %7, align 8
  %10 = zext i32 %4 to i64
  %11 = getelementptr inbounds ptr, ptr %9, i64 %10
  br label %_ZNK15G1PLABAllocator12alloc_bufferE16G1HeapRegionAttrj.exit

12:                                               ; preds = %5
  %13 = sext i8 %.sroa.1.0.extract.trunc.i to i64
  %14 = getelementptr inbounds [2 x %"struct.G1PLABAllocator::PLABData"], ptr %7, i64 0, i64 %13
  %15 = load ptr, ptr %14, align 8
  br label %_ZNK15G1PLABAllocator12alloc_bufferE16G1HeapRegionAttrj.exit

_ZNK15G1PLABAllocator12alloc_bufferE16G1HeapRegionAttrj.exit: ; preds = %8, %12
  %.0.in.i.i = phi ptr [ %11, %8 ], [ %15, %12 ]
  %.0.i.i = load ptr, ptr %.0.in.i.i, align 8
  tail call void @_ZN4PLAB15undo_allocationEPP12HeapWordImplm(ptr noundef nonnull align 8 dereferenceable(128) %.0.i.i, ptr noundef %2, i64 noundef %3) #15
  ret void
}